target datalayout = "e-m:e-p270:32:32-p271:32:32-p272:64:64-i64:64-i128:128-f80:128-n8:16:32:64-S128"
target triple = "x86_64-pc-linux-gnu"

%"class.clang::NestedNameSpecifier" = type { %"class.llvm::FoldingSetBase::Node", %"class.llvm::PointerIntPair", ptr }
%"class.llvm::FoldingSetBase::Node" = type { ptr }
%"class.llvm::PointerIntPair" = type { %"struct.llvm::detail::PunnedPointer" }
%"struct.llvm::detail::PunnedPointer" = type { [8 x i8] }

; Function Attrs: mustprogress nounwind uwtable
define linkonce_odr hidden noundef ptr @_ZN4llvm21PointerLikeTypeTraitsIPN5clang19NestedNameSpecifierEE16getAsVoidPointerES3_(ptr noundef %0) #0 comdat align 2 {
  %2 = alloca ptr, align 8
  store ptr %0, ptr %2, align 8
  %3 = load ptr, ptr %2, align 8
  ret ptr %3
}

; Function Attrs: mustprogress nounwind uwtable
define linkonce_odr hidden noundef i64 @_ZNK4llvm6detail13PunnedPointerIPN5clang19NestedNameSpecifierEE5asIntEv(ptr noundef nonnull align 8 dereferenceable(8) %0) #0 comdat align 2 {
  %2 = alloca ptr, align 8
  %3 = alloca i64, align 8
  store ptr %0, ptr %2, align 8
  %4 = load ptr, ptr %2, align 8
  store i64 0, ptr %3, align 8
  %5 = getelementptr inbounds nuw %"struct.llvm::detail::PunnedPointer", ptr %4, i32 0, i32 0
  %6 = getelementptr inbounds [8 x i8], ptr %5, i64 0, i64 0
  call void @llvm.memcpy.p0.p0.i64(ptr align 8 %3, ptr align 8 %6, i64 8, i1 false)
  %7 = load i64, ptr %3, align 8
  ret i64 %7
}

; Function Attrs: mustprogress nounwind uwtable
define linkonce_odr hidden void @_ZNR4llvm14PointerIntPairIPN5clang19NestedNameSpecifierELj2ENS2_19StoredSpecifierKindENS_21PointerLikeTypeTraitsIS3_EENS_18PointerIntPairInfoIS3_Lj2ES6_EEE16setPointerAndIntES3_S4_(ptr noundef nonnull align 8 dereferenceable(8) %0, ptr noundef %1, i32 noundef %2) #0 comdat align 2 {
  %4 = alloca ptr, align 8
  %5 = alloca ptr, align 8
  %6 = alloca i32, align 4
  store ptr %0, ptr %4, align 8
  store ptr %1, ptr %5, align 8
  store i32 %2, ptr %6, align 4
  %7 = load ptr, ptr %4, align 8
  %8 = load ptr, ptr %5, align 8
  %9 = call noundef i64 @_ZN4llvm18PointerIntPairInfoIPN5clang19NestedNameSpecifierELj2ENS_21PointerLikeTypeTraitsIS3_EEE13updatePointerElS3_(i64 noundef 0, ptr noundef %8)
  %10 = load i32, ptr %6, align 4
  %11 = zext i32 %10 to i64
  %12 = call noundef i64 @_ZN4llvm18PointerIntPairInfoIPN5clang19NestedNameSpecifierELj2ENS_21PointerLikeTypeTraitsIS3_EEE9updateIntEll(i64 noundef %9, i64 noundef %11)
  %13 = getelementptr inbounds nuw %"class.llvm::PointerIntPair", ptr %7, i32 0, i32 0
  %14 = call noundef nonnull align 8 dereferenceable(8) ptr @_ZN4llvm6detail13PunnedPointerIPN5clang19NestedNameSpecifierEEaSEl(ptr noundef nonnull align 8 dereferenceable(8) %13, i64 noundef %12)
  ret void
}

; Function Attrs: mustprogress nounwind uwtable
define linkonce_odr hidden void @_ZN4llvm6detail13PunnedPointerIPN5clang19NestedNameSpecifierEEC2El(ptr noundef nonnull align 8 dereferenceable(8) %0, i64 noundef %1) unnamed_addr #0 comdat align 2 {
  %3 = alloca ptr, align 8
  %4 = alloca i64, align 8
  store ptr %0, ptr %3, align 8
  store i64 %1, ptr %4, align 8
  %5 = load ptr, ptr %3, align 8
  %6 = load i64, ptr %4, align 8
  %7 = call noundef nonnull align 8 dereferenceable(8) ptr @_ZN4llvm6detail13PunnedPointerIPN5clang19NestedNameSpecifierEEaSEl(ptr noundef nonnull align 8 dereferenceable(8) %5, i64 noundef %6)
  ret void
}

; Function Attrs: mustprogress nounwind uwtable
define linkonce_odr hidden noundef i64 @_ZN4llvm18PointerIntPairInfoIPN5clang19NestedNameSpecifierELj2ENS_21PointerLikeTypeTraitsIS3_EEE9updateIntEll(i64 noundef %0, i64 noundef %1) #0 comdat align 2 {
  %3 = alloca i64, align 8
  %4 = alloca i64, align 8
  %5 = alloca i64, align 8
  store i64 %0, ptr %3, align 8
  store i64 %1, ptr %4, align 8
  %6 = load i64, ptr %4, align 8
  store i64 %6, ptr %5, align 8
  %7 = load i64, ptr %3, align 8
  %8 = and i64 %7, -7
  %9 = load i64, ptr %5, align 8
  %10 = shl i64 %9, 1
  %11 = or i64 %8, %10
  ret i64 %11
}

; Function Attrs: mustprogress nounwind uwtable
define linkonce_odr hidden noundef nonnull align 8 dereferenceable(8) ptr @_ZN4llvm6detail13PunnedPointerIPN5clang19NestedNameSpecifierEEaSEl(ptr noundef nonnull align 8 dereferenceable(8) %0, i64 noundef %1) #0 comdat align 2 {
  %3 = alloca ptr, align 8
  %4 = alloca i64, align 8
  store ptr %0, ptr %3, align 8
  store i64 %1, ptr %4, align 8
  %5 = load ptr, ptr %3, align 8
  %6 = getelementptr inbounds nuw %"struct.llvm::detail::PunnedPointer", ptr %5, i32 0, i32 0
  %7 = getelementptr inbounds [8 x i8], ptr %6, i64 0, i64 0
  call void @llvm.memcpy.p0.p0.i64(ptr align 8 %7, ptr align 8 %4, i64 8, i1 false)
  ret ptr %5
}

; Function Attrs: mustprogress nounwind uwtable
define linkonce_odr hidden noundef i64 @_ZN4llvm18PointerIntPairInfoIPN5clang19NestedNameSpecifierELj2ENS_21PointerLikeTypeTraitsIS3_EEE13updatePointerElS3_(i64 noundef %0, ptr noundef %1) #0 comdat align 2 {
  %3 = alloca i64, align 8
  %4 = alloca ptr, align 8
  %5 = alloca i64, align 8
  store i64 %0, ptr %3, align 8
  store ptr %1, ptr %4, align 8
  %6 = load ptr, ptr %4, align 8
  %7 = call noundef ptr @_ZN4llvm21PointerLikeTypeTraitsIPN5clang19NestedNameSpecifierEE16getAsVoidPointerES3_(ptr noundef %6)
  %8 = ptrtoint ptr %7 to i64
  store i64 %8, ptr %5, align 8
  %9 = load i64, ptr %5, align 8
  %10 = load i64, ptr %3, align 8
  %11 = and i64 %10, 7
  %12 = or i64 %9, %11
  ret i64 %12
}

; Function Attrs: mustprogress nounwind uwtable
define linkonce_odr hidden noundef i64 @_ZNK4llvm6detail13PunnedPointerIPN5clang19NestedNameSpecifierEEcvlEv(ptr noundef nonnull align 8 dereferenceable(8) %0) #0 comdat align 2 {
  %2 = alloca ptr, align 8
  store ptr %0, ptr %2, align 8
  %3 = load ptr, ptr %2, align 8
  %4 = call noundef i64 @_ZNK4llvm6detail13PunnedPointerIPN5clang19NestedNameSpecifierEE5asIntEv(ptr noundef nonnull align 8 dereferenceable(8) %3)
  ret i64 %4
}

; Function Attrs: mustprogress nounwind uwtable
define linkonce_odr hidden void @_ZN4llvm14PointerIntPairIPN5clang19NestedNameSpecifierELj2ENS2_19StoredSpecifierKindENS_21PointerLikeTypeTraitsIS3_EENS_18PointerIntPairInfoIS3_Lj2ES6_EEEC2ES3_S4_(ptr noundef nonnull align 8 dereferenceable(8) %0, ptr noundef %1, i32 noundef %2) unnamed_addr #0 comdat align 2 {
  %4 = alloca ptr, align 8
  %5 = alloca ptr, align 8
  %6 = alloca i32, align 4
  store ptr %0, ptr %4, align 8
  store ptr %1, ptr %5, align 8
  store i32 %2, ptr %6, align 4
  %7 = load ptr, ptr %4, align 8
  %8 = getelementptr inbounds nuw %"class.llvm::PointerIntPair", ptr %7, i32 0, i32 0
  call void @_ZN4llvm6detail13PunnedPointerIPN5clang19NestedNameSpecifierEEC2El(ptr noundef nonnull align 8 dereferenceable(8) %8, i64 noundef 0)
  %9 = load ptr, ptr %5, align 8
  %10 = load i32, ptr %6, align 4
  call void @_ZNR4llvm14PointerIntPairIPN5clang19NestedNameSpecifierELj2ENS2_19StoredSpecifierKindENS_21PointerLikeTypeTraitsIS3_EENS_18PointerIntPairInfoIS3_Lj2ES6_EEE16setPointerAndIntES3_S4_(ptr noundef nonnull align 8 dereferenceable(8) %7, ptr noundef %9, i32 noundef %10)
  ret void
}

; Function Attrs: mustprogress nounwind uwtable
define linkonce_odr hidden void @_ZN4llvm14FoldingSetBase4NodeC2Ev(ptr noundef nonnull align 8 dereferenceable(8) %0) unnamed_addr #0 comdat align 2 {
  %2 = alloca ptr, align 8
  store ptr %0, ptr %2, align 8
  %3 = load ptr, ptr %2, align 8
  %4 = getelementptr inbounds nuw %"class.llvm::FoldingSetBase::Node", ptr %3, i32 0, i32 0
  store ptr null, ptr %4, align 8
  ret void
}

; Function Attrs: mustprogress nounwind uwtable
define linkonce_odr hidden void @_ZNR4llvm14PointerIntPairIPN5clang19NestedNameSpecifierELj2ENS2_19StoredSpecifierKindENS_21PointerLikeTypeTraitsIS3_EENS_18PointerIntPairInfoIS3_Lj2ES6_EEE6setIntES4_(ptr noundef nonnull align 8 dereferenceable(8) %0, i32 noundef %1) #0 comdat align 2 {
  %3 = alloca ptr, align 8
  %4 = alloca i32, align 4
  store ptr %0, ptr %3, align 8
  store i32 %1, ptr %4, align 4
  %5 = load ptr, ptr %3, align 8
  %6 = getelementptr inbounds nuw %"class.llvm::PointerIntPair", ptr %5, i32 0, i32 0
  %7 = call noundef i64 @_ZNK4llvm6detail13PunnedPointerIPN5clang19NestedNameSpecifierEEcvlEv(ptr noundef nonnull align 8 dereferenceable(8) %6)
  %8 = load i32, ptr %4, align 4
  %9 = zext i32 %8 to i64
  %10 = call noundef i64 @_ZN4llvm18PointerIntPairInfoIPN5clang19NestedNameSpecifierELj2ENS_21PointerLikeTypeTraitsIS3_EEE9updateIntEll(i64 noundef %7, i64 noundef %9)
  %11 = getelementptr inbounds nuw %"class.llvm::PointerIntPair", ptr %5, i32 0, i32 0
  %12 = call noundef nonnull align 8 dereferenceable(8) ptr @_ZN4llvm6detail13PunnedPointerIPN5clang19NestedNameSpecifierEEaSEl(ptr noundef nonnull align 8 dereferenceable(8) %11, i64 noundef %10)
  ret void
}

; Function Attrs: mustprogress nounwind uwtable
define linkonce_odr hidden void @_ZNR4llvm14PointerIntPairIPN5clang19NestedNameSpecifierELj2ENS2_19StoredSpecifierKindENS_21PointerLikeTypeTraitsIS3_EENS_18PointerIntPairInfoIS3_Lj2ES6_EEE10setPointerES3_(ptr noundef nonnull align 8 dereferenceable(8) %0, ptr noundef %1) #0 comdat align 2 {
  %3 = alloca ptr, align 8
  %4 = alloca ptr, align 8
  store ptr %0, ptr %3, align 8
  store ptr %1, ptr %4, align 8
  %5 = load ptr, ptr %3, align 8
  %6 = getelementptr inbounds nuw %"class.llvm::PointerIntPair", ptr %5, i32 0, i32 0
  %7 = call noundef i64 @_ZNK4llvm6detail13PunnedPointerIPN5clang19NestedNameSpecifierEEcvlEv(ptr noundef nonnull align 8 dereferenceable(8) %6)
  %8 = load ptr, ptr %4, align 8
  %9 = call noundef i64 @_ZN4llvm18PointerIntPairInfoIPN5clang19NestedNameSpecifierELj2ENS_21PointerLikeTypeTraitsIS3_EEE13updatePointerElS3_(i64 noundef %7, ptr noundef %8)
  %10 = getelementptr inbounds nuw %"class.llvm::PointerIntPair", ptr %5, i32 0, i32 0
  %11 = call noundef nonnull align 8 dereferenceable(8) ptr @_ZN4llvm6detail13PunnedPointerIPN5clang19NestedNameSpecifierEEaSEl(ptr noundef nonnull align 8 dereferenceable(8) %10, i64 noundef %9)
  ret void
}

; Function Attrs: mustprogress nounwind uwtable
define linkonce_odr hidden void @_ZN5clang19NestedNameSpecifierC2Ev(ptr noundef nonnull align 8 dereferenceable(24) %0) unnamed_addr #0 comdat align 2 {
  %2 = alloca ptr, align 8
  store ptr %0, ptr %2, align 8
  %3 = load ptr, ptr %2, align 8
  call void @_ZN4llvm14FoldingSetBase4NodeC2Ev(ptr noundef nonnull align 8 dereferenceable(8) %3) #11
  %4 = getelementptr inbounds nuw %"class.clang::NestedNameSpecifier", ptr %3, i32 0, i32 1
  call void @_ZN4llvm14PointerIntPairIPN5clang19NestedNameSpecifierELj2ENS2_19StoredSpecifierKindENS_21PointerLikeTypeTraitsIS3_EENS_18PointerIntPairInfoIS3_Lj2ES6_EEEC2ES3_S4_(ptr noundef nonnull align 8 dereferenceable(8) %4, ptr noundef null, i32 noundef 0)
  %5 = getelementptr inbounds nuw %"class.clang::NestedNameSpecifier", ptr %3, i32 0, i32 2
  store ptr null, ptr %5, align 8
  ret void
}

; Function Attrs: mustprogress nounwind uwtable
define dso_local noundef ptr @_ZN5clang19NestedNameSpecifier6CreateERKNS_10ASTContextEPS0_PKNS_18NamespaceAliasDeclE(ptr noundef nonnull align 8 dereferenceable(23096) %0, ptr noundef %1, ptr noundef %2) #0 align 2 {
  %4 = alloca ptr, align 8
  %5 = alloca ptr, align 8
  %6 = alloca ptr, align 8
  %7 = alloca %"class.clang::NestedNameSpecifier", align 8
  store ptr %0, ptr %4, align 8
  store ptr %1, ptr %5, align 8
  store ptr %2, ptr %6, align 8
  call void @_ZN5clang19NestedNameSpecifierC2Ev(ptr noundef nonnull align 8 dereferenceable(24) %7)
  %8 = getelementptr inbounds nuw %"class.clang::NestedNameSpecifier", ptr %7, i32 0, i32 1
  %9 = load ptr, ptr %5, align 8
  call void @_ZNR4llvm14PointerIntPairIPN5clang19NestedNameSpecifierELj2ENS2_19StoredSpecifierKindENS_21PointerLikeTypeTraitsIS3_EENS_18PointerIntPairInfoIS3_Lj2ES6_EEE10setPointerES3_(ptr noundef nonnull align 8 dereferenceable(8) %8, ptr noundef %9)
  %10 = getelementptr inbounds nuw %"class.clang::NestedNameSpecifier", ptr %7, i32 0, i32 1
  call void @_ZNR4llvm14PointerIntPairIPN5clang19NestedNameSpecifierELj2ENS2_19StoredSpecifierKindENS_21PointerLikeTypeTraitsIS3_EENS_18PointerIntPairInfoIS3_Lj2ES6_EEE6setIntES4_(ptr noundef nonnull align 8 dereferenceable(8) %10, i32 noundef 1)
  %11 = load ptr, ptr %6, align 8
  %12 = getelementptr inbounds nuw %"class.clang::NestedNameSpecifier", ptr %7, i32 0, i32 2
  store ptr %11, ptr %12, align 8
  %13 = load ptr, ptr %4, align 8
  %14 = call noundef ptr @_ZN5clang19NestedNameSpecifier12FindOrInsertERKNS_10ASTContextERKS0_(ptr noundef nonnull align 8 dereferenceable(23096) %13, ptr noundef nonnull align 8 dereferenceable(24) %7)
  ret ptr %14
}