; Function Attrs: mustprogress nounwind uwtable
define dso_local noundef ptr @_ZN5clang19NestedNameSpecifier6CreateERKNS_10ASTContextEPS0_PKNS_18NamespaceAliasDeclE(ptr noundef nonnull align 8 dereferenceable(23096) %0, ptr noundef %1, ptr noundef %2) local_unnamed_addr #0 align 2 {
  %4 = alloca %"class.clang::NestedNameSpecifier", align 8
  store i64 0, ptr %4, align 8
  %5 = getelementptr inbounds nuw i8, ptr %4, i64 8
  %6 = ptrtoint ptr %1 to i64
  %.masked = and i64 %6, -7
  %7 = or disjoint i64 %.masked, 2
  store i64 %7, ptr %5, align 8
  %8 = getelementptr inbounds nuw i8, ptr %4, i64 16
  store ptr %2, ptr %8, align 8
  %9 = call noundef ptr @_ZN5clang19NestedNameSpecifier12FindOrInsertERKNS_10ASTContextERKS0_(ptr noundef nonnull align 8 dereferenceable(23096) %0, ptr noundef nonnull align 8 dereferenceable(24) %4)
  ret ptr %9
}